target datalayout = "e-m:e-p270:32:32-p271:32:32-p272:64:64-i64:64-i128:128-f80:128-n8:16:32:64-S128"
target triple = "x86_64-pc-linux-gnu"

%"struct.pxrInternal_v0_24__pxrReserved__::UsdImagingPointInstancerAdapter::_ProtoPrim" = type <{ %"class.std::vector.15", %"class.std::shared_ptr.9", %"class.pxrInternal_v0_24__pxrReserved__::SdfPath", i32, i8, [3 x i8] }>
%"class.std::vector.15" = type { %"struct.std::_Vector_base.16" }
%"struct.std::_Vector_base.16" = type { %"struct.std::_Vector_base<pxrInternal_v0_24__pxrReserved__::SdfPath, std::allocator<pxrInternal_v0_24__pxrReserved__::SdfPath>>::_Vector_impl" }
%"struct.std::_Vector_base<pxrInternal_v0_24__pxrReserved__::SdfPath, std::allocator<pxrInternal_v0_24__pxrReserved__::SdfPath>>::_Vector_impl" = type { %"struct.std::_Vector_base<pxrInternal_v0_24__pxrReserved__::SdfPath, std::allocator<pxrInternal_v0_24__pxrReserved__::SdfPath>>::_Vector_impl_data" }
%"struct.std::_Vector_base<pxrInternal_v0_24__pxrReserved__::SdfPath, std::allocator<pxrInternal_v0_24__pxrReserved__::SdfPath>>::_Vector_impl_data" = type { ptr, ptr, ptr }
%"class.std::shared_ptr.9" = type { %"class.std::__shared_ptr.10" }
%"class.std::__shared_ptr.10" = type { ptr, %"class.std::__shared_count" }
%"class.std::__shared_count" = type { ptr }
%"class.pxrInternal_v0_24__pxrReserved__::SdfPath" = type { %"struct.pxrInternal_v0_24__pxrReserved__::Sdf_PathNodeHandleImpl", %"struct.pxrInternal_v0_24__pxrReserved__::Sdf_PathNodeHandleImpl.3" }
%"struct.pxrInternal_v0_24__pxrReserved__::Sdf_PathNodeHandleImpl" = type { %"struct.pxrInternal_v0_24__pxrReserved__::Sdf_Pool<pxrInternal_v0_24__pxrReserved__::Sdf_PathPrimTag, 24, 8>::Handle" }
%"struct.pxrInternal_v0_24__pxrReserved__::Sdf_Pool<pxrInternal_v0_24__pxrReserved__::Sdf_PathPrimTag, 24, 8>::Handle" = type { i32 }
%"struct.pxrInternal_v0_24__pxrReserved__::Sdf_PathNodeHandleImpl.3" = type { %"struct.pxrInternal_v0_24__pxrReserved__::Sdf_Pool<pxrInternal_v0_24__pxrReserved__::Sdf_PathPropTag, 24, 8>::Handle" }
%"struct.pxrInternal_v0_24__pxrReserved__::Sdf_Pool<pxrInternal_v0_24__pxrReserved__::Sdf_PathPropTag, 24, 8>::Handle" = type { i32 }

; Function Attrs: mustprogress nounwind uwtable
define linkonce_odr noundef ptr @_ZNKSt12__shared_ptrIN32pxrInternal_v0_24__pxrReserved__21UsdImagingPrimAdapterELN9__gnu_cxx12_Lock_policyE2EE3getEv(ptr noundef nonnull align 8 dereferenceable(16) %0) #2 comdat align 2 {
  %2 = alloca ptr, align 8
  store ptr %0, ptr %2, align 8
  %3 = load ptr, ptr %2, align 8
  %4 = getelementptr inbounds nuw %"class.std::__shared_ptr.10", ptr %3, i32 0, i32 0
  %5 = load ptr, ptr %4, align 8
  ret ptr %5
}

; Function Attrs: mustprogress nounwind uwtable
define linkonce_odr noundef ptr @_ZNKSt19__shared_ptr_accessIN32pxrInternal_v0_24__pxrReserved__21UsdImagingPrimAdapterELN9__gnu_cxx12_Lock_policyE2ELb0ELb0EE6_M_getEv(ptr noundef nonnull align 1 dereferenceable(1) %0) #2 comdat align 2 {
  %2 = alloca ptr, align 8
  store ptr %0, ptr %2, align 8
  %3 = load ptr, ptr %2, align 8
  %4 = call noundef ptr @_ZNKSt12__shared_ptrIN32pxrInternal_v0_24__pxrReserved__21UsdImagingPrimAdapterELN9__gnu_cxx12_Lock_policyE2EE3getEv(ptr noundef nonnull align 8 dereferenceable(16) %3) #8
  ret ptr %4
}

; Function Attrs: mustprogress nounwind uwtable
define linkonce_odr noundef ptr @_ZNKSt19__shared_ptr_accessIN32pxrInternal_v0_24__pxrReserved__21UsdImagingPrimAdapterELN9__gnu_cxx12_Lock_policyE2ELb0ELb0EEptEv(ptr noundef nonnull align 1 dereferenceable(1) %0) #2 comdat align 2 {
  %2 = alloca ptr, align 8
  store ptr %0, ptr %2, align 8
  %3 = load ptr, ptr %2, align 8
  %4 = call noundef ptr @_ZNKSt19__shared_ptr_accessIN32pxrInternal_v0_24__pxrReserved__21UsdImagingPrimAdapterELN9__gnu_cxx12_Lock_policyE2ELb0ELb0EE6_M_getEv(ptr noundef nonnull align 1 dereferenceable(1) %3) #8
  ret ptr %4
}

; Function Attrs: mustprogress uwtable
define void @_ZN32pxrInternal_v0_24__pxrReserved__31UsdImagingPointInstancerAdapter18MarkTransformDirtyERKNS_7UsdPrimERKNS_7SdfPathEPNS_20UsdImagingIndexProxyE(ptr noundef nonnull align 8 dereferenceable(88) %0, ptr noundef nonnull align 8 dereferenceable(32) %1, ptr noundef nonnull align 4 dereferenceable(8) %2, ptr noundef %3) unnamed_addr #0 align 2 personality ptr @__gxx_personality_v0 {
  %5 = alloca ptr, align 8
  %6 = alloca ptr, align 8
  %7 = alloca ptr, align 8
  %8 = alloca ptr, align 8
  %9 = alloca %"class.pxrInternal_v0_24__pxrReserved__::SdfPath", align 4
  %10 = alloca ptr, align 8
  %11 = alloca ptr, align 8
  %12 = alloca i32, align 4
  store ptr %0, ptr %5, align 8
  store ptr %1, ptr %6, align 8
  store ptr %2, ptr %7, align 8
  store ptr %3, ptr %8, align 8
  %13 = load ptr, ptr %5, align 8
  %14 = load ptr, ptr %7, align 8
  %15 = load ptr, ptr %13, align 8
  %16 = getelementptr inbounds ptr, ptr %15, i64 44
  %17 = load ptr, ptr %16, align 8
  %18 = call noundef zeroext i1 %17(ptr noundef nonnull align 8 dereferenceable(88) %13, ptr noundef nonnull align 4 dereferenceable(8) %14)
  br i1 %18, label %19, label %38

19:                                               ; preds = %4
  %20 = load ptr, ptr %7, align 8
  call void @_ZNK32pxrInternal_v0_24__pxrReserved__7SdfPath13GetParentPathEv(ptr dead_on_unwind writable sret(%"class.pxrInternal_v0_24__pxrReserved__::SdfPath") align 4 %9, ptr noundef nonnull align 4 dereferenceable(8) %20)
  %21 = load ptr, ptr %7, align 8
  %22 = invoke noundef nonnull align 8 dereferenceable(53) ptr @_ZNK32pxrInternal_v0_24__pxrReserved__31UsdImagingPointInstancerAdapter13_GetProtoPrimERKNS_7SdfPathES3_(ptr noundef nonnull align 8 dereferenceable(88) %13, ptr noundef nonnull align 4 dereferenceable(8) %9, ptr noundef nonnull align 4 dereferenceable(8) %21)
          to label %23 unwind label %34

23:                                               ; preds = %19
  store ptr %22, ptr %10, align 8
  %24 = load ptr, ptr %10, align 8
  %25 = getelementptr inbounds nuw %"struct.pxrInternal_v0_24__pxrReserved__::UsdImagingPointInstancerAdapter::_ProtoPrim", ptr %24, i32 0, i32 1
  %26 = call noundef ptr @_ZNKSt19__shared_ptr_accessIN32pxrInternal_v0_24__pxrReserved__21UsdImagingPrimAdapterELN9__gnu_cxx12_Lock_policyE2ELb0ELb0EEptEv(ptr noundef nonnull align 1 dereferenceable(1) %25) #8
  %27 = load ptr, ptr %6, align 8
  %28 = load ptr, ptr %7, align 8
  %29 = load ptr, ptr %8, align 8
  %30 = load ptr, ptr %26, align 8
  %31 = getelementptr inbounds ptr, ptr %30, i64 24
  %32 = load ptr, ptr %31, align 8
  invoke void %32(ptr noundef nonnull align 8 dereferenceable(32) %26, ptr noundef nonnull align 8 dereferenceable(32) %27, ptr noundef nonnull align 4 dereferenceable(8) %28, ptr noundef %29)
          to label %33 unwind label %34

33:                                               ; preds = %23
  call void @_ZN32pxrInternal_v0_24__pxrReserved__7SdfPathD2Ev(ptr noundef nonnull align 4 dereferenceable(8) %9) #8
  br label %41

34:                                               ; preds = %23, %19
  %35 = landingpad { ptr, i32 }
          cleanup
  %36 = extractvalue { ptr, i32 } %35, 0
  store ptr %36, ptr %11, align 8
  %37 = extractvalue { ptr, i32 } %35, 1
  store i32 %37, ptr %12, align 4
  call void @_ZN32pxrInternal_v0_24__pxrReserved__7SdfPathD2Ev(ptr noundef nonnull align 4 dereferenceable(8) %9) #8
  br label %42

38:                                               ; preds = %4
  %39 = load ptr, ptr %8, align 8
  %40 = load ptr, ptr %7, align 8
  call void @_ZN32pxrInternal_v0_24__pxrReserved__20UsdImagingIndexProxy18MarkInstancerDirtyERKNS_7SdfPathEj(ptr noundef nonnull align 8 dereferenceable(184) %39, ptr noundef nonnull align 4 dereferenceable(8) %40, i32 noundef 512)
  br label %41

41:                                               ; preds = %38, %33
  ret void

42:                                               ; preds = %34
  %43 = load ptr, ptr %11, align 8
  %44 = load i32, ptr %12, align 4
  %45 = insertvalue { ptr, i32 } poison, ptr %43, 0
  %46 = insertvalue { ptr, i32 } %45, i32 %44, 1
  resume { ptr, i32 } %46
}