; Function Attrs: mustprogress uwtable
define void @_ZN32pxrInternal_v0_24__pxrReserved__31UsdImagingPointInstancerAdapter18MarkTransformDirtyERKNS_7UsdPrimERKNS_7SdfPathEPNS_20UsdImagingIndexProxyE(ptr noundef nonnull align 8 dereferenceable(88) %0, ptr noundef nonnull align 8 dereferenceable(32) %1, ptr noundef nonnull align 4 dereferenceable(8) %2, ptr noundef %3) unnamed_addr #0 align 2 personality ptr @__gxx_personality_v0 {
  %5 = alloca %"class.pxrInternal_v0_24__pxrReserved__::SdfPath", align 4
  %6 = load ptr, ptr %0, align 8
  %7 = getelementptr inbounds i8, ptr %6, i64 352
  %8 = load ptr, ptr %7, align 8
  %9 = tail call noundef zeroext i1 %8(ptr noundef nonnull align 8 dereferenceable(88) %0, ptr noundef nonnull align 4 dereferenceable(8) %2)
  br i1 %9, label %10, label %39

10:                                               ; preds = %4
  call void @_ZNK32pxrInternal_v0_24__pxrReserved__7SdfPath13GetParentPathEv(ptr dead_on_unwind nonnull writable sret(%"class.pxrInternal_v0_24__pxrReserved__::SdfPath") align 4 %5, ptr noundef nonnull align 4 dereferenceable(8) %2)
  %11 = invoke noundef nonnull align 8 dereferenceable(53) ptr @_ZNK32pxrInternal_v0_24__pxrReserved__31UsdImagingPointInstancerAdapter13_GetProtoPrimERKNS_7SdfPathES3_(ptr noundef nonnull align 8 dereferenceable(88) %0, ptr noundef nonnull align 4 dereferenceable(8) %5, ptr noundef nonnull align 4 dereferenceable(8) %2)
          to label %12 unwind label %37

12:                                               ; preds = %10
  %13 = getelementptr inbounds nuw i8, ptr %11, i64 24
  %14 = load ptr, ptr %13, align 8
  %15 = load ptr, ptr %14, align 8
  %16 = getelementptr inbounds i8, ptr %15, i64 192
  %17 = load ptr, ptr %16, align 8
  invoke void %17(ptr noundef nonnull align 8 dereferenceable(32) %14, ptr noundef nonnull align 8 dereferenceable(32) %1, ptr noundef nonnull align 4 dereferenceable(8) %2, ptr noundef %3)
          to label %18 unwind label %37

18:                                               ; preds = %12
  %19 = load i32, ptr %5, align 4
  %.not.i.i = icmp eq i32 %19, 0
  br i1 %.not.i.i, label %_ZN32pxrInternal_v0_24__pxrReserved__7SdfPathD2Ev.exit, label %20

20:                                               ; preds = %18
  %21 = and i32 %19, 255
  %22 = lshr i32 %19, 8
  %23 = zext nneg i32 %21 to i64
  %24 = getelementptr inbounds [257 x ptr], ptr @_ZN32pxrInternal_v0_24__pxrReserved__8Sdf_PoolINS_15Sdf_PathPrimTagELj24ELj8ELj16384EE13_regionStartsE, i64 0, i64 %23
  %25 = load ptr, ptr %24, align 8
  %26 = mul nuw nsw i32 %22, 24
  %27 = zext nneg i32 %26 to i64
  %28 = getelementptr inbounds i8, ptr %25, i64 %27
  %29 = getelementptr inbounds nuw i8, ptr %28, i64 8
  %30 = atomicrmw sub ptr %29, i32 1 seq_cst, align 4
  %31 = and i32 %30, 2147483647
  %32 = icmp eq i32 %31, 1
  br i1 %32, label %33, label %_ZN32pxrInternal_v0_24__pxrReserved__7SdfPathD2Ev.exit

33:                                               ; preds = %20
  invoke void @_ZNK32pxrInternal_v0_24__pxrReserved__12Sdf_PathNode8_DestroyEv(ptr noundef nonnull align 8 dereferenceable(16) %28)
          to label %_ZN32pxrInternal_v0_24__pxrReserved__7SdfPathD2Ev.exit unwind label %34

34:                                               ; preds = %33
  %35 = landingpad { ptr, i32 }
          catch ptr null
  %36 = extractvalue { ptr, i32 } %35, 0
  call void @__clang_call_terminate(ptr %36) #28
  unreachable

37:                                               ; preds = %12, %10
  %38 = landingpad { ptr, i32 }
          cleanup
  call void @_ZN32pxrInternal_v0_24__pxrReserved__7SdfPathD2Ev(ptr noundef nonnull align 4 dereferenceable(8) %5) #26
  resume { ptr, i32 } %38

39:                                               ; preds = %4
  tail call void @_ZN32pxrInternal_v0_24__pxrReserved__20UsdImagingIndexProxy18MarkInstancerDirtyERKNS_7SdfPathEj(ptr noundef nonnull align 8 dereferenceable(184) %3, ptr noundef nonnull align 4 dereferenceable(8) %2, i32 noundef 512)
  br label %_ZN32pxrInternal_v0_24__pxrReserved__7SdfPathD2Ev.exit

_ZN32pxrInternal_v0_24__pxrReserved__7SdfPathD2Ev.exit: ; preds = %33, %20, %18, %39
  ret void
}